target datalayout = "e-m:e-p270:32:32-p271:32:32-p272:64:64-i64:64-i128:128-f80:128-n8:16:32:64-S128"
target triple = "x86_64-pc-linux-gnu"

@ExplicitGCInvokesConcurrent = external global i8, align 1
@G1PeriodicGCInvokesConcurrent = external global i8, align 1

; Function Attrs: mustprogress nounwind uwtable
define linkonce_odr hidden noundef zeroext i1 @_ZN7GCCause20is_user_requested_gcENS_5CauseE(i32 noundef %0) #1 comdat align 2 {
  %2 = alloca i32, align 4
  store i32 %0, ptr %2, align 4
  %3 = load i32, ptr %2, align 4
  %4 = icmp eq i32 %3, 0
  br i1 %4, label %8, label %5

5:                                                ; preds = %1
  %6 = load i32, ptr %2, align 4
  %7 = icmp eq i32 %6, 23
  br label %8

8:                                                ; preds = %5, %1
  %9 = phi i1 [ true, %1 ], [ %7, %5 ]
  ret i1 %9
}

; Function Attrs: mustprogress nounwind uwtable
define hidden noundef zeroext i1 @_ZN15G1CollectedHeap36is_user_requested_concurrent_full_gcEN7GCCause5CauseE(ptr noundef nonnull align 8 dereferenceable(1488) %0, i32 noundef %1) #1 align 2 {
  %3 = alloca ptr, align 8
  %4 = alloca i32, align 4
  store ptr %0, ptr %3, align 8
  store i32 %1, ptr %4, align 4
  %5 = load i32, ptr %4, align 4
  %6 = call noundef zeroext i1 @_ZN7GCCause20is_user_requested_gcENS_5CauseE(i32 noundef %5)
  br i1 %6, label %7, label %10

7:                                                ; preds = %2
  %8 = load i8, ptr @ExplicitGCInvokesConcurrent, align 1
  %9 = trunc i8 %8 to i1
  br label %10

10:                                               ; preds = %7, %2
  %11 = phi i1 [ false, %2 ], [ %9, %7 ]
  ret i1 %11
}

; Function Attrs: mustprogress nounwind uwtable
define hidden noundef zeroext i1 @_ZN15G1CollectedHeap28should_do_concurrent_full_gcEN7GCCause5CauseE(ptr noundef nonnull align 8 dereferenceable(1488) %0, i32 noundef %1) #1 align 2 {
  %3 = alloca i1, align 1
  %4 = alloca ptr, align 8
  %5 = alloca i32, align 4
  store ptr %0, ptr %4, align 8
  store i32 %1, ptr %5, align 4
  %6 = load ptr, ptr %4, align 8
  %7 = load i32, ptr %5, align 4
  switch i32 %7, label %15 [
    i32 21, label %8
    i32 22, label %9
    i32 10, label %12
    i32 15, label %13
    i32 14, label %14
  ]

8:                                                ; preds = %2
  store i1 true, ptr %3, align 1
  br label %18

9:                                                ; preds = %2
  %10 = load i8, ptr @G1PeriodicGCInvokesConcurrent, align 1
  %11 = trunc i8 %10 to i1
  store i1 %11, ptr %3, align 1
  br label %18

12:                                               ; preds = %2
  store i1 true, ptr %3, align 1
  br label %18

13:                                               ; preds = %2
  store i1 true, ptr %3, align 1
  br label %18

14:                                               ; preds = %2
  store i1 true, ptr %3, align 1
  br label %18

15:                                               ; preds = %2
  %16 = load i32, ptr %5, align 4
  %17 = call noundef zeroext i1 @_ZN15G1CollectedHeap36is_user_requested_concurrent_full_gcEN7GCCause5CauseE(ptr noundef nonnull align 8 dereferenceable(1488) %6, i32 noundef %16)
  store i1 %17, ptr %3, align 1
  br label %18

18:                                               ; preds = %15, %14, %13, %12, %9, %8
  %19 = load i1, ptr %3, align 1
  ret i1 %19
}