; Function Attrs: mustprogress nofree norecurse nosync nounwind willreturn memory(read, argmem: none, inaccessiblemem: none) uwtable
define hidden noundef zeroext i1 @_ZN15G1CollectedHeap28should_do_concurrent_full_gcEN7GCCause5CauseE(ptr nocapture noundef nonnull readnone align 8 dereferenceable(1488) %0, i32 noundef %1) local_unnamed_addr #3 align 2 {
  switch i32 %1, label %6 [
    i32 21, label %13
    i32 22, label %3
    i32 10, label %13
    i32 15, label %13
    i32 14, label %13
  ]

3:                                                ; preds = %2
  %4 = load i8, ptr @G1PeriodicGCInvokesConcurrent, align 1
  %5 = trunc i8 %4 to i1
  br label %13

6:                                                ; preds = %2
  %7 = icmp eq i32 %1, 0
  %8 = icmp eq i32 %1, 23
  %9 = or i1 %7, %8
  %10 = load i8, ptr @ExplicitGCInvokesConcurrent, align 1
  %11 = trunc i8 %10 to i1
  %12 = select i1 %9, i1 %11, i1 false
  br label %13

13:                                               ; preds = %2, %2, %2, %2, %6, %3
  %.0 = phi i1 [ %12, %6 ], [ %5, %3 ], [ true, %2 ], [ true, %2 ], [ true, %2 ], [ true, %2 ]
  ret i1 %.0
}